target datalayout = "e-m:e-p270:32:32-p271:32:32-p272:64:64-i64:64-i128:128-f80:128-n8:16:32:64-S128"
target triple = "x86_64-pc-linux-gnu"

%"class.cv::utils::trace::details::Region" = type <{ ptr, i32, [4 x i8] }>

; Function Attrs: inlinehint mustprogress nounwind uwtable
define linkonce_odr noundef float @_ZSt3absf(float noundef %0) #3 comdat {
  %2 = alloca float, align 4
  store float %0, ptr %2, align 4, !tbaa !14
  %3 = load float, ptr %2, align 4, !tbaa !14
  %4 = call float @llvm.fabs.f32(float %3)
  ret float %4
}

; Function Attrs: inlinehint mustprogress uwtable
define internal noundef float @_ZN2cv3hal12cpu_baseline12_GLOBAL__N_18atan_f32Eff(float noundef %0, float noundef %1) #6 {
  %3 = alloca float, align 4
  %4 = alloca float, align 4
  %5 = alloca float, align 4
  %6 = alloca float, align 4
  %7 = alloca float, align 4
  %8 = alloca float, align 4
  %9 = alloca float, align 4
  store float %0, ptr %3, align 4, !tbaa !14
  store float %1, ptr %4, align 4, !tbaa !14
  call void @llvm.lifetime.start.p0(i64 4, ptr %5) #14
  %10 = load float, ptr %4, align 4, !tbaa !14
  %11 = call noundef float @_ZSt3absf(float noundef %10)
  store float %11, ptr %5, align 4, !tbaa !14
  call void @llvm.lifetime.start.p0(i64 4, ptr %6) #14
  %12 = load float, ptr %3, align 4, !tbaa !14
  %13 = call noundef float @_ZSt3absf(float noundef %12)
  store float %13, ptr %6, align 4, !tbaa !14
  call void @llvm.lifetime.start.p0(i64 4, ptr %7) #14
  call void @llvm.lifetime.start.p0(i64 4, ptr %8) #14
  call void @llvm.lifetime.start.p0(i64 4, ptr %9) #14
  %14 = load float, ptr %5, align 4, !tbaa !14
  %15 = load float, ptr %6, align 4, !tbaa !14
  %16 = fcmp oge float %14, %15
  br i1 %16, label %17, label %33

17:                                               ; preds = %2
  %18 = load float, ptr %6, align 4, !tbaa !14
  %19 = load float, ptr %5, align 4, !tbaa !14
  %20 = fadd float %19, 0x3CB0000000000000
  %21 = fdiv float %18, %20
  store float %21, ptr %8, align 4, !tbaa !14
  %22 = load float, ptr %8, align 4, !tbaa !14
  %23 = load float, ptr %8, align 4, !tbaa !14
  %24 = fmul float %22, %23
  store float %24, ptr %9, align 4, !tbaa !14
  %25 = load float, ptr %9, align 4, !tbaa !14
  %26 = call float @llvm.fmuladd.f32(float 0xC004515B20000000, float %25, float 0x4021D3F7E0000000)
  %27 = load float, ptr %9, align 4, !tbaa !14
  %28 = call float @llvm.fmuladd.f32(float %26, float %27, float 0xC032AADDC0000000)
  %29 = load float, ptr %9, align 4, !tbaa !14
  %30 = call float @llvm.fmuladd.f32(float %28, float %29, float 0x404CA44DE0000000)
  %31 = load float, ptr %8, align 4, !tbaa !14
  %32 = fmul float %30, %31
  store float %32, ptr %7, align 4, !tbaa !14
  br label %50

33:                                               ; preds = %2
  %34 = load float, ptr %5, align 4, !tbaa !14
  %35 = load float, ptr %6, align 4, !tbaa !14
  %36 = fadd float %35, 0x3CB0000000000000
  %37 = fdiv float %34, %36
  store float %37, ptr %8, align 4, !tbaa !14
  %38 = load float, ptr %8, align 4, !tbaa !14
  %39 = load float, ptr %8, align 4, !tbaa !14
  %40 = fmul float %38, %39
  store float %40, ptr %9, align 4, !tbaa !14
  %41 = load float, ptr %9, align 4, !tbaa !14
  %42 = call float @llvm.fmuladd.f32(float 0xC004515B20000000, float %41, float 0x4021D3F7E0000000)
  %43 = load float, ptr %9, align 4, !tbaa !14
  %44 = call float @llvm.fmuladd.f32(float %42, float %43, float 0xC032AADDC0000000)
  %45 = load float, ptr %9, align 4, !tbaa !14
  %46 = call float @llvm.fmuladd.f32(float %44, float %45, float 0x404CA44DE0000000)
  %47 = load float, ptr %8, align 4, !tbaa !14
  %48 = fneg float %46
  %49 = call float @llvm.fmuladd.f32(float %48, float %47, float 9.000000e+01)
  store float %49, ptr %7, align 4, !tbaa !14
  br label %50

50:                                               ; preds = %33, %17
  %51 = load float, ptr %4, align 4, !tbaa !14
  %52 = fcmp olt float %51, 0.000000e+00
  br i1 %52, label %53, label %56

53:                                               ; preds = %50
  %54 = load float, ptr %7, align 4, !tbaa !14
  %55 = fsub float 1.800000e+02, %54
  store float %55, ptr %7, align 4, !tbaa !14
  br label %56

56:                                               ; preds = %53, %50
  %57 = load float, ptr %3, align 4, !tbaa !14
  %58 = fcmp olt float %57, 0.000000e+00
  br i1 %58, label %59, label %62

59:                                               ; preds = %56
  %60 = load float, ptr %7, align 4, !tbaa !14
  %61 = fsub float 3.600000e+02, %60
  store float %61, ptr %7, align 4, !tbaa !14
  br label %62

62:                                               ; preds = %59, %56
  %63 = load float, ptr %7, align 4, !tbaa !14
  call void @llvm.lifetime.end.p0(i64 4, ptr %9) #14
  call void @llvm.lifetime.end.p0(i64 4, ptr %8) #14
  call void @llvm.lifetime.end.p0(i64 4, ptr %7) #14
  call void @llvm.lifetime.end.p0(i64 4, ptr %6) #14
  call void @llvm.lifetime.end.p0(i64 4, ptr %5) #14
  ret float %63
}

; Function Attrs: inlinehint mustprogress nounwind uwtable
define linkonce_odr hidden void @_ZN2cv5utils5trace7details6RegionD2Ev(ptr noundef nonnull align 8 dereferenceable(12) %0) unnamed_addr #3 comdat align 2 personality ptr @__gxx_personality_v0 {
  %2 = alloca ptr, align 8
  store ptr %0, ptr %2, align 8, !tbaa !18
  %3 = load ptr, ptr %2, align 8
  %4 = getelementptr inbounds nuw %"class.cv::utils::trace::details::Region", ptr %3, i32 0, i32 1
  %5 = load i32, ptr %4, align 8, !tbaa !20
  %6 = icmp ne i32 %5, 0
  br i1 %6, label %7, label %9

7:                                                ; preds = %1
  invoke void @_ZN2cv5utils5trace7details6Region7destroyEv(ptr noundef nonnull align 8 dereferenceable(12) %3)
          to label %8 unwind label %10

8:                                                ; preds = %7
  br label %9

9:                                                ; preds = %8, %1
  ret void

10:                                               ; preds = %7
  %11 = landingpad { ptr, i32 }
          catch ptr null
  %12 = extractvalue { ptr, i32 } %11, 0
  call void @__clang_call_terminate(ptr %12) #15
  unreachable
}

; Function Attrs: mustprogress uwtable
define internal void @_ZN2cv3hal12cpu_baselineL12fastAtan32f_EPKfS3_Pfib(ptr noundef %0, ptr noundef %1, ptr noundef %2, i32 noundef %3, i1 noundef zeroext %4) #0 {
  %6 = alloca ptr, align 8
  %7 = alloca ptr, align 8
  %8 = alloca ptr, align 8
  %9 = alloca i32, align 4
  %10 = alloca i8, align 1
  %11 = alloca float, align 4
  %12 = alloca i32, align 4
  store ptr %0, ptr %6, align 8, !tbaa !3
  store ptr %1, ptr %7, align 8, !tbaa !3
  store ptr %2, ptr %8, align 8, !tbaa !3
  store i32 %3, ptr %9, align 4, !tbaa !8
  %13 = zext i1 %4 to i8
  store i8 %13, ptr %10, align 1, !tbaa !10
  call void @llvm.lifetime.start.p0(i64 4, ptr %11) #14
  %14 = load i8, ptr %10, align 1, !tbaa !10, !range !12, !noundef !13
  %15 = trunc i8 %14 to i1
  %16 = select i1 %15, float 1.000000e+00, float 0x3F91DF46A0000000
  store float %16, ptr %11, align 4, !tbaa !14
  call void @llvm.lifetime.start.p0(i64 4, ptr %12) #14
  store i32 0, ptr %12, align 4, !tbaa !8
  br label %17

17:                                               ; preds = %39, %5
  %18 = load i32, ptr %12, align 4, !tbaa !8
  %19 = load i32, ptr %9, align 4, !tbaa !8
  %20 = icmp slt i32 %18, %19
  br i1 %20, label %21, label %42

21:                                               ; preds = %17
  %22 = load ptr, ptr %6, align 8, !tbaa !3
  %23 = load i32, ptr %12, align 4, !tbaa !8
  %24 = sext i32 %23 to i64
  %25 = getelementptr inbounds float, ptr %22, i64 %24
  %26 = load float, ptr %25, align 4, !tbaa !14
  %27 = load ptr, ptr %7, align 8, !tbaa !3
  %28 = load i32, ptr %12, align 4, !tbaa !8
  %29 = sext i32 %28 to i64
  %30 = getelementptr inbounds float, ptr %27, i64 %29
  %31 = load float, ptr %30, align 4, !tbaa !14
  %32 = call noundef float @_ZN2cv3hal12cpu_baseline12_GLOBAL__N_18atan_f32Eff(float noundef %26, float noundef %31)
  %33 = load float, ptr %11, align 4, !tbaa !14
  %34 = fmul float %32, %33
  %35 = load ptr, ptr %8, align 8, !tbaa !3
  %36 = load i32, ptr %12, align 4, !tbaa !8
  %37 = sext i32 %36 to i64
  %38 = getelementptr inbounds float, ptr %35, i64 %37
  store float %34, ptr %38, align 4, !tbaa !14
  br label %39

39:                                               ; preds = %21
  %40 = load i32, ptr %12, align 4, !tbaa !8
  %41 = add nsw i32 %40, 1
  store i32 %41, ptr %12, align 4, !tbaa !8
  br label %17, !llvm.loop !33

42:                                               ; preds = %17
  call void @llvm.lifetime.end.p0(i64 4, ptr %12) #14
  call void @llvm.lifetime.end.p0(i64 4, ptr %11) #14
  ret void
}

; Function Attrs: mustprogress uwtable
define hidden void @_ZN2cv3hal12cpu_baseline11fastAtan32fEPKfS3_Pfib(ptr noundef %0, ptr noundef %1, ptr noundef %2, i32 noundef %3, i1 noundef zeroext %4) #0 personality ptr @__gxx_personality_v0 {
  %6 = alloca ptr, align 8
  %7 = alloca ptr, align 8
  %8 = alloca ptr, align 8
  %9 = alloca i32, align 4
  %10 = alloca i8, align 1
  %11 = alloca %"class.cv::utils::trace::details::Region", align 8
  %12 = alloca ptr, align 8
  %13 = alloca i32, align 4
  store ptr %0, ptr %6, align 8, !tbaa !3
  store ptr %1, ptr %7, align 8, !tbaa !3
  store ptr %2, ptr %8, align 8, !tbaa !3
  store i32 %3, ptr %9, align 4, !tbaa !8
  %14 = zext i1 %4 to i8
  store i8 %14, ptr %10, align 1, !tbaa !10
  call void @llvm.lifetime.start.p0(i64 16, ptr %11) #14
  call void @_ZN2cv5utils5trace7details6RegionC1ERKNS3_21LocationStaticStorageE(ptr noundef nonnull align 8 dereferenceable(12) %11, ptr noundef nonnull align 8 dereferenceable(32) @_ZZN2cv3hal12cpu_baseline11fastAtan32fEPKfS3_PfibE25__cv_trace_location_fn239)
  %15 = load ptr, ptr %6, align 8, !tbaa !3
  %16 = load ptr, ptr %7, align 8, !tbaa !3
  %17 = load ptr, ptr %8, align 8, !tbaa !3
  %18 = load i32, ptr %9, align 4, !tbaa !8
  %19 = load i8, ptr %10, align 1, !tbaa !10, !range !12, !noundef !13
  %20 = trunc i8 %19 to i1
  invoke void @_ZN2cv3hal12cpu_baselineL12fastAtan32f_EPKfS3_Pfib(ptr noundef %15, ptr noundef %16, ptr noundef %17, i32 noundef %18, i1 noundef zeroext %20)
          to label %21 unwind label %22

21:                                               ; preds = %5
  call void @_ZN2cv5utils5trace7details6RegionD2Ev(ptr noundef nonnull align 8 dereferenceable(12) %11) #14
  call void @llvm.lifetime.end.p0(i64 16, ptr %11) #14
  ret void

22:                                               ; preds = %5
  %23 = landingpad { ptr, i32 }
          cleanup
  %24 = extractvalue { ptr, i32 } %23, 0
  store ptr %24, ptr %12, align 8
  %25 = extractvalue { ptr, i32 } %23, 1
  store i32 %25, ptr %13, align 4
  call void @_ZN2cv5utils5trace7details6RegionD2Ev(ptr noundef nonnull align 8 dereferenceable(12) %11) #14
  call void @llvm.lifetime.end.p0(i64 16, ptr %11) #14
  br label %26

26:                                               ; preds = %22
  %27 = load ptr, ptr %12, align 8
  %28 = load i32, ptr %13, align 4
  %29 = insertvalue { ptr, i32 } poison, ptr %27, 0
  %30 = insertvalue { ptr, i32 } %29, i32 %28, 1
  resume { ptr, i32 } %30
}