; Function Attrs: mustprogress uwtable
define hidden void @_ZN2cv3hal12cpu_baseline11fastAtan32fEPKfS3_Pfib(ptr noundef readonly captures(none) %0, ptr noundef readonly captures(none) %1, ptr noundef writeonly captures(none) %2, i32 noundef %3, i1 noundef zeroext %4) local_unnamed_addr #0 personality ptr @__gxx_personality_v0 {
  %6 = alloca %"class.cv::utils::trace::details::Region", align 8
  call void @llvm.lifetime.start.p0(i64 16, ptr nonnull %6) #12
  call void @_ZN2cv5utils5trace7details6RegionC1ERKNS3_21LocationStaticStorageE(ptr noundef nonnull align 8 dereferenceable(12) %6, ptr noundef nonnull align 8 dereferenceable(32) @_ZZN2cv3hal12cpu_baseline11fastAtan32fEPKfS3_PfibE25__cv_trace_location_fn239)
  %7 = select i1 %4, float 1.000000e+00, float 0x3F91DF46A0000000
  %8 = icmp sgt i32 %3, 0
  br i1 %8, label %.lr.ph.preheader.i, label %_ZN2cv3hal12cpu_baselineL12fastAtan32f_EPKfS3_Pfib.exit

.lr.ph.preheader.i:                               ; preds = %5
  %wide.trip.count.i = zext nneg i32 %3 to i64
  br label %.lr.ph.i

.lr.ph.i:                                         ; preds = %_ZN2cv3hal12cpu_baseline12_GLOBAL__N_18atan_f32Eff.exit.i, %.lr.ph.preheader.i
  %indvars.iv.i = phi i64 [ 0, %.lr.ph.preheader.i ], [ %indvars.iv.next.i, %_ZN2cv3hal12cpu_baseline12_GLOBAL__N_18atan_f32Eff.exit.i ]
  %9 = getelementptr inbounds nuw float, ptr %0, i64 %indvars.iv.i
  %10 = load float, ptr %9, align 4, !tbaa !3
  %11 = getelementptr inbounds nuw float, ptr %1, i64 %indvars.iv.i
  %12 = load float, ptr %11, align 4, !tbaa !3
  %13 = call noundef float @llvm.fabs.f32(float %12)
  %14 = call noundef float @llvm.fabs.f32(float %10)
  %15 = fcmp ult float %13, %14
  br i1 %15, label %24, label %16

16:                                               ; preds = %.lr.ph.i
  %17 = fadd float %13, 0x3CB0000000000000
  %18 = fdiv float %14, %17
  %19 = fmul float %18, %18
  %20 = call float @llvm.fmuladd.f32(float %19, float 0xC004515B20000000, float 0x4021D3F7E0000000)
  %21 = call float @llvm.fmuladd.f32(float %20, float %19, float 0xC032AADDC0000000)
  %22 = call float @llvm.fmuladd.f32(float %21, float %19, float 0x404CA44DE0000000)
  %23 = fmul float %18, %22
  br label %_ZN2cv3hal12cpu_baseline12_GLOBAL__N_18atan_f32Eff.exit.i

24:                                               ; preds = %.lr.ph.i
  %25 = fadd float %14, 0x3CB0000000000000
  %26 = fdiv float %13, %25
  %27 = fmul float %26, %26
  %28 = call float @llvm.fmuladd.f32(float %27, float 0xC004515B20000000, float 0x4021D3F7E0000000)
  %29 = call float @llvm.fmuladd.f32(float %28, float %27, float 0xC032AADDC0000000)
  %30 = call float @llvm.fmuladd.f32(float %29, float %27, float 0x404CA44DE0000000)
  %31 = fneg float %30
  %32 = call float @llvm.fmuladd.f32(float %31, float %26, float 9.000000e+01)
  br label %_ZN2cv3hal12cpu_baseline12_GLOBAL__N_18atan_f32Eff.exit.i

_ZN2cv3hal12cpu_baseline12_GLOBAL__N_18atan_f32Eff.exit.i: ; preds = %24, %16
  %.0.i.i = phi float [ %23, %16 ], [ %32, %24 ]
  %33 = fcmp olt float %12, 0.000000e+00
  %34 = fsub float 1.800000e+02, %.0.i.i
  %.1.i.i = select i1 %33, float %34, float %.0.i.i
  %35 = fcmp olt float %10, 0.000000e+00
  %36 = fsub float 3.600000e+02, %.1.i.i
  %.2.i.i = select i1 %35, float %36, float %.1.i.i
  %37 = fmul float %7, %.2.i.i
  %38 = getelementptr inbounds nuw float, ptr %2, i64 %indvars.iv.i
  store float %37, ptr %38, align 4, !tbaa !3
  %indvars.iv.next.i = add nuw nsw i64 %indvars.iv.i, 1
  %exitcond.not.i = icmp eq i64 %indvars.iv.next.i, %wide.trip.count.i
  br i1 %exitcond.not.i, label %_ZN2cv3hal12cpu_baselineL12fastAtan32f_EPKfS3_Pfib.exit, label %.lr.ph.i, !llvm.loop !20

_ZN2cv3hal12cpu_baselineL12fastAtan32f_EPKfS3_Pfib.exit: ; preds = %_ZN2cv3hal12cpu_baseline12_GLOBAL__N_18atan_f32Eff.exit.i, %5
  %39 = getelementptr inbounds nuw i8, ptr %6, i64 8
  %40 = load i32, ptr %39, align 8, !tbaa !9
  %.not.i = icmp eq i32 %40, 0
  br i1 %.not.i, label %_ZN2cv5utils5trace7details6RegionD2Ev.exit, label %41

41:                                               ; preds = %_ZN2cv3hal12cpu_baselineL12fastAtan32f_EPKfS3_Pfib.exit
  invoke void @_ZN2cv5utils5trace7details6Region7destroyEv(ptr noundef nonnull align 8 dereferenceable(12) %6)
          to label %_ZN2cv5utils5trace7details6RegionD2Ev.exit unwind label %42

42:                                               ; preds = %41
  %43 = landingpad { ptr, i32 }
          catch ptr null
  %44 = extractvalue { ptr, i32 } %43, 0
  call void @__clang_call_terminate(ptr %44) #13
  unreachable

_ZN2cv5utils5trace7details6RegionD2Ev.exit:       ; preds = %_ZN2cv3hal12cpu_baselineL12fastAtan32f_EPKfS3_Pfib.exit, %41
  call void @llvm.lifetime.end.p0(i64 16, ptr nonnull %6) #12
  ret void
}